target datalayout = "e-m:e-p270:32:32-p271:32:32-p272:64:64-i64:64-i128:128-f80:128-n8:16:32:64-S128"
target triple = "x86_64-pc-linux-gnu"

; Function Attrs: inlinehint nounwind uwtable
define internal i32 @Kit_WordCountOnes(i32 noundef %0) #2 {
  %2 = alloca i32, align 4
  store i32 %0, ptr %2, align 4, !tbaa !8
  %3 = load i32, ptr %2, align 4, !tbaa !8
  %4 = and i32 %3, 1431655765
  %5 = load i32, ptr %2, align 4, !tbaa !8
  %6 = lshr i32 %5, 1
  %7 = and i32 %6, 1431655765
  %8 = add i32 %4, %7
  store i32 %8, ptr %2, align 4, !tbaa !8
  %9 = load i32, ptr %2, align 4, !tbaa !8
  %10 = and i32 %9, 858993459
  %11 = load i32, ptr %2, align 4, !tbaa !8
  %12 = lshr i32 %11, 2
  %13 = and i32 %12, 858993459
  %14 = add i32 %10, %13
  store i32 %14, ptr %2, align 4, !tbaa !8
  %15 = load i32, ptr %2, align 4, !tbaa !8
  %16 = and i32 %15, 252645135
  %17 = load i32, ptr %2, align 4, !tbaa !8
  %18 = lshr i32 %17, 4
  %19 = and i32 %18, 252645135
  %20 = add i32 %16, %19
  store i32 %20, ptr %2, align 4, !tbaa !8
  %21 = load i32, ptr %2, align 4, !tbaa !8
  %22 = and i32 %21, 16711935
  %23 = load i32, ptr %2, align 4, !tbaa !8
  %24 = lshr i32 %23, 8
  %25 = and i32 %24, 16711935
  %26 = add i32 %22, %25
  store i32 %26, ptr %2, align 4, !tbaa !8
  %27 = load i32, ptr %2, align 4, !tbaa !8
  %28 = and i32 %27, 65535
  %29 = load i32, ptr %2, align 4, !tbaa !8
  %30 = lshr i32 %29, 16
  %31 = add i32 %28, %30
  ret i32 %31
}

; Function Attrs: inlinehint nounwind uwtable
define internal i32 @Kit_TruthWordNum(i32 noundef %0) #2 {
  %2 = alloca i32, align 4
  store i32 %0, ptr %2, align 4, !tbaa !8
  %3 = load i32, ptr %2, align 4, !tbaa !8
  %4 = icmp sle i32 %3, 5
  br i1 %4, label %5, label %6

5:                                                ; preds = %1
  br label %10

6:                                                ; preds = %1
  %7 = load i32, ptr %2, align 4, !tbaa !8
  %8 = sub nsw i32 %7, 5
  %9 = shl i32 1, %8
  br label %10

10:                                               ; preds = %6, %5
  %11 = phi i32 [ 1, %5 ], [ %9, %6 ]
  ret i32 %11
}

; Function Attrs: nounwind uwtable
define i32 @Kit_TruthCofactor0Count(ptr noundef %0, i32 noundef %1, i32 noundef %2) #0 {
  %4 = alloca i32, align 4
  %5 = alloca ptr, align 8
  %6 = alloca i32, align 4
  %7 = alloca i32, align 4
  %8 = alloca i32, align 4
  %9 = alloca i32, align 4
  %10 = alloca i32, align 4
  %11 = alloca i32, align 4
  %12 = alloca i32, align 4
  %13 = alloca i32, align 4
  store ptr %0, ptr %5, align 8, !tbaa !3
  store i32 %1, ptr %6, align 4, !tbaa !8
  store i32 %2, ptr %7, align 4, !tbaa !8
  call void @llvm.lifetime.start.p0(i64 4, ptr %8) #8
  %14 = load i32, ptr %6, align 4, !tbaa !8
  %15 = call i32 @Kit_TruthWordNum(i32 noundef %14)
  store i32 %15, ptr %8, align 4, !tbaa !8
  call void @llvm.lifetime.start.p0(i64 4, ptr %9) #8
  call void @llvm.lifetime.start.p0(i64 4, ptr %10) #8
  call void @llvm.lifetime.start.p0(i64 4, ptr %11) #8
  call void @llvm.lifetime.start.p0(i64 4, ptr %12) #8
  store i32 0, ptr %12, align 4, !tbaa !8
  %16 = load i32, ptr %7, align 4, !tbaa !8
  switch i32 %16, label %117 [
    i32 0, label %17
    i32 1, label %37
    i32 2, label %57
    i32 3, label %77
    i32 4, label %97
  ]

17:                                               ; preds = %3
  store i32 0, ptr %9, align 4, !tbaa !8
  br label %18

18:                                               ; preds = %32, %17
  %19 = load i32, ptr %9, align 4, !tbaa !8
  %20 = load i32, ptr %8, align 4, !tbaa !8
  %21 = icmp slt i32 %19, %20
  br i1 %21, label %22, label %35

22:                                               ; preds = %18
  %23 = load ptr, ptr %5, align 8, !tbaa !3
  %24 = load i32, ptr %9, align 4, !tbaa !8
  %25 = sext i32 %24 to i64
  %26 = getelementptr inbounds i32, ptr %23, i64 %25
  %27 = load i32, ptr %26, align 4, !tbaa !8
  %28 = and i32 %27, 1431655765
  %29 = call i32 @Kit_WordCountOnes(i32 noundef %28)
  %30 = load i32, ptr %12, align 4, !tbaa !8
  %31 = add nsw i32 %30, %29
  store i32 %31, ptr %12, align 4, !tbaa !8
  br label %32

32:                                               ; preds = %22
  %33 = load i32, ptr %9, align 4, !tbaa !8
  %34 = add nsw i32 %33, 1
  store i32 %34, ptr %9, align 4, !tbaa !8
  br label %18, !llvm.loop !54

35:                                               ; preds = %18
  %36 = load i32, ptr %12, align 4, !tbaa !8
  store i32 %36, ptr %4, align 4
  store i32 1, ptr %13, align 4
  br label %155

37:                                               ; preds = %3
  store i32 0, ptr %9, align 4, !tbaa !8
  br label %38

38:                                               ; preds = %52, %37
  %39 = load i32, ptr %9, align 4, !tbaa !8
  %40 = load i32, ptr %8, align 4, !tbaa !8
  %41 = icmp slt i32 %39, %40
  br i1 %41, label %42, label %55

42:                                               ; preds = %38
  %43 = load ptr, ptr %5, align 8, !tbaa !3
  %44 = load i32, ptr %9, align 4, !tbaa !8
  %45 = sext i32 %44 to i64
  %46 = getelementptr inbounds i32, ptr %43, i64 %45
  %47 = load i32, ptr %46, align 4, !tbaa !8
  %48 = and i32 %47, 858993459
  %49 = call i32 @Kit_WordCountOnes(i32 noundef %48)
  %50 = load i32, ptr %12, align 4, !tbaa !8
  %51 = add nsw i32 %50, %49
  store i32 %51, ptr %12, align 4, !tbaa !8
  br label %52

52:                                               ; preds = %42
  %53 = load i32, ptr %9, align 4, !tbaa !8
  %54 = add nsw i32 %53, 1
  store i32 %54, ptr %9, align 4, !tbaa !8
  br label %38, !llvm.loop !55

55:                                               ; preds = %38
  %56 = load i32, ptr %12, align 4, !tbaa !8
  store i32 %56, ptr %4, align 4
  store i32 1, ptr %13, align 4
  br label %155

57:                                               ; preds = %3
  store i32 0, ptr %9, align 4, !tbaa !8
  br label %58

58:                                               ; preds = %72, %57
  %59 = load i32, ptr %9, align 4, !tbaa !8
  %60 = load i32, ptr %8, align 4, !tbaa !8
  %61 = icmp slt i32 %59, %60
  br i1 %61, label %62, label %75

62:                                               ; preds = %58
  %63 = load ptr, ptr %5, align 8, !tbaa !3
  %64 = load i32, ptr %9, align 4, !tbaa !8
  %65 = sext i32 %64 to i64
  %66 = getelementptr inbounds i32, ptr %63, i64 %65
  %67 = load i32, ptr %66, align 4, !tbaa !8
  %68 = and i32 %67, 252645135
  %69 = call i32 @Kit_WordCountOnes(i32 noundef %68)
  %70 = load i32, ptr %12, align 4, !tbaa !8
  %71 = add nsw i32 %70, %69
  store i32 %71, ptr %12, align 4, !tbaa !8
  br label %72

72:                                               ; preds = %62
  %73 = load i32, ptr %9, align 4, !tbaa !8
  %74 = add nsw i32 %73, 1
  store i32 %74, ptr %9, align 4, !tbaa !8
  br label %58, !llvm.loop !56

75:                                               ; preds = %58
  %76 = load i32, ptr %12, align 4, !tbaa !8
  store i32 %76, ptr %4, align 4
  store i32 1, ptr %13, align 4
  br label %155

77:                                               ; preds = %3
  store i32 0, ptr %9, align 4, !tbaa !8
  br label %78

78:                                               ; preds = %92, %77
  %79 = load i32, ptr %9, align 4, !tbaa !8
  %80 = load i32, ptr %8, align 4, !tbaa !8
  %81 = icmp slt i32 %79, %80
  br i1 %81, label %82, label %95

82:                                               ; preds = %78
  %83 = load ptr, ptr %5, align 8, !tbaa !3
  %84 = load i32, ptr %9, align 4, !tbaa !8
  %85 = sext i32 %84 to i64
  %86 = getelementptr inbounds i32, ptr %83, i64 %85
  %87 = load i32, ptr %86, align 4, !tbaa !8
  %88 = and i32 %87, 16711935
  %89 = call i32 @Kit_WordCountOnes(i32 noundef %88)
  %90 = load i32, ptr %12, align 4, !tbaa !8
  %91 = add nsw i32 %90, %89
  store i32 %91, ptr %12, align 4, !tbaa !8
  br label %92

92:                                               ; preds = %82
  %93 = load i32, ptr %9, align 4, !tbaa !8
  %94 = add nsw i32 %93, 1
  store i32 %94, ptr %9, align 4, !tbaa !8
  br label %78, !llvm.loop !57

95:                                               ; preds = %78
  %96 = load i32, ptr %12, align 4, !tbaa !8
  store i32 %96, ptr %4, align 4
  store i32 1, ptr %13, align 4
  br label %155

97:                                               ; preds = %3
  store i32 0, ptr %9, align 4, !tbaa !8
  br label %98

98:                                               ; preds = %112, %97
  %99 = load i32, ptr %9, align 4, !tbaa !8
  %100 = load i32, ptr %8, align 4, !tbaa !8
  %101 = icmp slt i32 %99, %100
  br i1 %101, label %102, label %115

102:                                              ; preds = %98
  %103 = load ptr, ptr %5, align 8, !tbaa !3
  %104 = load i32, ptr %9, align 4, !tbaa !8
  %105 = sext i32 %104 to i64
  %106 = getelementptr inbounds i32, ptr %103, i64 %105
  %107 = load i32, ptr %106, align 4, !tbaa !8
  %108 = and i32 %107, 65535
  %109 = call i32 @Kit_WordCountOnes(i32 noundef %108)
  %110 = load i32, ptr %12, align 4, !tbaa !8
  %111 = add nsw i32 %110, %109
  store i32 %111, ptr %12, align 4, !tbaa !8
  br label %112

112:                                              ; preds = %102
  %113 = load i32, ptr %9, align 4, !tbaa !8
  %114 = add nsw i32 %113, 1
  store i32 %114, ptr %9, align 4, !tbaa !8
  br label %98, !llvm.loop !58

115:                                              ; preds = %98
  %116 = load i32, ptr %12, align 4, !tbaa !8
  store i32 %116, ptr %4, align 4
  store i32 1, ptr %13, align 4
  br label %155

117:                                              ; preds = %3
  %118 = load i32, ptr %7, align 4, !tbaa !8
  %119 = sub nsw i32 %118, 5
  %120 = shl i32 1, %119
  store i32 %120, ptr %11, align 4, !tbaa !8
  store i32 0, ptr %10, align 4, !tbaa !8
  br label %121

121:                                              ; preds = %148, %117
  %122 = load i32, ptr %10, align 4, !tbaa !8
  %123 = load i32, ptr %8, align 4, !tbaa !8
  %124 = icmp slt i32 %122, %123
  br i1 %124, label %125, label %153

125:                                              ; preds = %121
  store i32 0, ptr %9, align 4, !tbaa !8
  br label %126

126:                                              ; preds = %139, %125
  %127 = load i32, ptr %9, align 4, !tbaa !8
  %128 = load i32, ptr %11, align 4, !tbaa !8
  %129 = icmp slt i32 %127, %128
  br i1 %129, label %130, label %142

130:                                              ; preds = %126
  %131 = load ptr, ptr %5, align 8, !tbaa !3
  %132 = load i32, ptr %9, align 4, !tbaa !8
  %133 = sext i32 %132 to i64
  %134 = getelementptr inbounds i32, ptr %131, i64 %133
  %135 = load i32, ptr %134, align 4, !tbaa !8
  %136 = call i32 @Kit_WordCountOnes(i32 noundef %135)
  %137 = load i32, ptr %12, align 4, !tbaa !8
  %138 = add nsw i32 %137, %136
  store i32 %138, ptr %12, align 4, !tbaa !8
  br label %139

139:                                              ; preds = %130
  %140 = load i32, ptr %9, align 4, !tbaa !8
  %141 = add nsw i32 %140, 1
  store i32 %141, ptr %9, align 4, !tbaa !8
  br label %126, !llvm.loop !59

142:                                              ; preds = %126
  %143 = load i32, ptr %11, align 4, !tbaa !8
  %144 = mul nsw i32 2, %143
  %145 = load ptr, ptr %5, align 8, !tbaa !3
  %146 = sext i32 %144 to i64
  %147 = getelementptr inbounds i32, ptr %145, i64 %146
  store ptr %147, ptr %5, align 8, !tbaa !3
  br label %148

148:                                              ; preds = %142
  %149 = load i32, ptr %11, align 4, !tbaa !8
  %150 = mul nsw i32 2, %149
  %151 = load i32, ptr %10, align 4, !tbaa !8
  %152 = add nsw i32 %151, %150
  store i32 %152, ptr %10, align 4, !tbaa !8
  br label %121, !llvm.loop !60

153:                                              ; preds = %121
  %154 = load i32, ptr %12, align 4, !tbaa !8
  store i32 %154, ptr %4, align 4
  store i32 1, ptr %13, align 4
  br label %155

155:                                              ; preds = %153, %115, %95, %75, %55, %35
  call void @llvm.lifetime.end.p0(i64 4, ptr %12) #8
  call void @llvm.lifetime.end.p0(i64 4, ptr %11) #8
  call void @llvm.lifetime.end.p0(i64 4, ptr %10) #8
  call void @llvm.lifetime.end.p0(i64 4, ptr %9) #8
  call void @llvm.lifetime.end.p0(i64 4, ptr %8) #8
  %156 = load i32, ptr %4, align 4
  ret i32 %156
}