; Function Attrs: nofree norecurse nosync nounwind memory(argmem: read) uwtable
define i32 @Kit_TruthCofactor0Count(ptr noundef readonly captures(none) %0, i32 noundef %1, i32 noundef %2) local_unnamed_addr #3 {
  %4 = icmp slt i32 %1, 6
  %5 = add nsw i32 %1, -5
  %6 = shl nuw i32 1, %5
  %7 = select i1 %4, i32 1, i32 %6
  switch i32 %2, label %103 [
    i32 0, label %.preheader61
    i32 1, label %.preheader63
    i32 2, label %.preheader65
    i32 3, label %.preheader67
    i32 4, label %.preheader69
  ]

.preheader69:                                     ; preds = %3
  %8 = icmp sgt i32 %7, 0
  br i1 %8, label %.lr.ph.preheader, label %.loopexit

.lr.ph.preheader:                                 ; preds = %.preheader69
  %wide.trip.count = zext nneg i32 %7 to i64
  br label %.lr.ph

.preheader67:                                     ; preds = %3
  %9 = icmp sgt i32 %7, 0
  br i1 %9, label %.lr.ph75.preheader, label %.loopexit

.lr.ph75.preheader:                               ; preds = %.preheader67
  %wide.trip.count112 = zext nneg i32 %7 to i64
  br label %.lr.ph75

.preheader65:                                     ; preds = %3
  %10 = icmp sgt i32 %7, 0
  br i1 %10, label %.lr.ph79.preheader, label %.loopexit

.lr.ph79.preheader:                               ; preds = %.preheader65
  %wide.trip.count117 = zext nneg i32 %7 to i64
  br label %.lr.ph79

.preheader63:                                     ; preds = %3
  %11 = icmp sgt i32 %7, 0
  br i1 %11, label %.lr.ph83.preheader, label %.loopexit

.lr.ph83.preheader:                               ; preds = %.preheader63
  %wide.trip.count122 = zext nneg i32 %7 to i64
  br label %.lr.ph83

.preheader61:                                     ; preds = %3
  %12 = icmp sgt i32 %7, 0
  br i1 %12, label %.lr.ph87.preheader, label %.loopexit

.lr.ph87.preheader:                               ; preds = %.preheader61
  %wide.trip.count127 = zext nneg i32 %7 to i64
  br label %.lr.ph87

.lr.ph87:                                         ; preds = %.lr.ph87.preheader, %.lr.ph87
  %indvars.iv124 = phi i64 [ 0, %.lr.ph87.preheader ], [ %indvars.iv.next125, %.lr.ph87 ]
  %.086 = phi i32 [ 0, %.lr.ph87.preheader ], [ %30, %.lr.ph87 ]
  %13 = getelementptr inbounds nuw i32, ptr %0, i64 %indvars.iv124
  %14 = load i32, ptr %13, align 4, !tbaa !3
  %15 = and i32 %14, 286331153
  %16 = lshr i32 %14, 2
  %17 = and i32 %16, 286331153
  %18 = add nuw nsw i32 %17, %15
  %19 = and i32 %18, 50529027
  %20 = lshr i32 %18, 4
  %21 = and i32 %20, 50529027
  %22 = add nuw nsw i32 %21, %19
  %23 = and i32 %22, 458759
  %24 = lshr i32 %22, 8
  %25 = and i32 %24, 458759
  %26 = add nuw nsw i32 %25, %23
  %27 = and i32 %26, 15
  %28 = lshr i32 %26, 16
  %29 = add nuw nsw i32 %28, %.086
  %30 = add nuw nsw i32 %29, %27
  %indvars.iv.next125 = add nuw nsw i64 %indvars.iv124, 1
  %exitcond128.not = icmp eq i64 %indvars.iv.next125, %wide.trip.count127
  br i1 %exitcond128.not, label %.loopexit, label %.lr.ph87, !llvm.loop !48

.lr.ph83:                                         ; preds = %.lr.ph83.preheader, %.lr.ph83
  %indvars.iv119 = phi i64 [ 0, %.lr.ph83.preheader ], [ %indvars.iv.next120, %.lr.ph83 ]
  %.182 = phi i32 [ 0, %.lr.ph83.preheader ], [ %48, %.lr.ph83 ]
  %31 = getelementptr inbounds nuw i32, ptr %0, i64 %indvars.iv119
  %32 = load i32, ptr %31, align 4, !tbaa !3
  %33 = and i32 %32, 286331153
  %34 = lshr i32 %32, 1
  %35 = and i32 %34, 286331153
  %36 = add nuw nsw i32 %35, %33
  %37 = and i32 %36, 50529027
  %38 = lshr i32 %36, 4
  %39 = and i32 %38, 50529027
  %40 = add nuw nsw i32 %39, %37
  %41 = and i32 %40, 458759
  %42 = lshr i32 %40, 8
  %43 = and i32 %42, 458759
  %44 = add nuw nsw i32 %43, %41
  %45 = and i32 %44, 15
  %46 = lshr i32 %44, 16
  %47 = add nuw nsw i32 %46, %.182
  %48 = add nuw nsw i32 %47, %45
  %indvars.iv.next120 = add nuw nsw i64 %indvars.iv119, 1
  %exitcond123.not = icmp eq i64 %indvars.iv.next120, %wide.trip.count122
  br i1 %exitcond123.not, label %.loopexit, label %.lr.ph83, !llvm.loop !49

.lr.ph79:                                         ; preds = %.lr.ph79.preheader, %.lr.ph79
  %indvars.iv114 = phi i64 [ 0, %.lr.ph79.preheader ], [ %indvars.iv.next115, %.lr.ph79 ]
  %.278 = phi i32 [ 0, %.lr.ph79.preheader ], [ %66, %.lr.ph79 ]
  %49 = getelementptr inbounds nuw i32, ptr %0, i64 %indvars.iv114
  %50 = load i32, ptr %49, align 4, !tbaa !3
  %51 = and i32 %50, 84215045
  %52 = lshr i32 %50, 1
  %53 = and i32 %52, 84215045
  %54 = add nuw nsw i32 %53, %51
  %55 = and i32 %54, 50529027
  %56 = lshr i32 %54, 2
  %57 = and i32 %56, 50529027
  %58 = add nuw nsw i32 %57, %55
  %59 = and i32 %58, 458759
  %60 = lshr i32 %58, 8
  %61 = and i32 %60, 458759
  %62 = add nuw nsw i32 %61, %59
  %63 = and i32 %62, 15
  %64 = lshr i32 %62, 16
  %65 = add nuw nsw i32 %64, %.278
  %66 = add nuw nsw i32 %65, %63
  %indvars.iv.next115 = add nuw nsw i64 %indvars.iv114, 1
  %exitcond118.not = icmp eq i64 %indvars.iv.next115, %wide.trip.count117
  br i1 %exitcond118.not, label %.loopexit, label %.lr.ph79, !llvm.loop !50

.lr.ph75:                                         ; preds = %.lr.ph75.preheader, %.lr.ph75
  %indvars.iv109 = phi i64 [ 0, %.lr.ph75.preheader ], [ %indvars.iv.next110, %.lr.ph75 ]
  %.374 = phi i32 [ 0, %.lr.ph75.preheader ], [ %84, %.lr.ph75 ]
  %67 = getelementptr inbounds nuw i32, ptr %0, i64 %indvars.iv109
  %68 = load i32, ptr %67, align 4, !tbaa !3
  %69 = and i32 %68, 5570645
  %70 = lshr i32 %68, 1
  %71 = and i32 %70, 5570645
  %72 = add nuw nsw i32 %71, %69
  %73 = and i32 %72, 3342387
  %74 = lshr i32 %72, 2
  %75 = and i32 %74, 3342387
  %76 = add nuw nsw i32 %75, %73
  %77 = and i32 %76, 458759
  %78 = lshr i32 %76, 4
  %79 = and i32 %78, 458759
  %80 = add nuw nsw i32 %79, %77
  %81 = and i32 %80, 15
  %82 = lshr i32 %80, 16
  %83 = add nuw nsw i32 %82, %.374
  %84 = add nuw nsw i32 %83, %81
  %indvars.iv.next110 = add nuw nsw i64 %indvars.iv109, 1
  %exitcond113.not = icmp eq i64 %indvars.iv.next110, %wide.trip.count112
  br i1 %exitcond113.not, label %.loopexit, label %.lr.ph75, !llvm.loop !51

.lr.ph:                                           ; preds = %.lr.ph.preheader, %.lr.ph
  %indvars.iv = phi i64 [ 0, %.lr.ph.preheader ], [ %indvars.iv.next, %.lr.ph ]
  %.472 = phi i32 [ 0, %.lr.ph.preheader ], [ %102, %.lr.ph ]
  %85 = getelementptr inbounds nuw i32, ptr %0, i64 %indvars.iv
  %86 = load i32, ptr %85, align 4, !tbaa !3
  %87 = and i32 %86, 21845
  %88 = lshr i32 %86, 1
  %89 = and i32 %88, 21845
  %90 = add nuw nsw i32 %89, %87
  %91 = and i32 %90, 13107
  %92 = lshr i32 %90, 2
  %93 = and i32 %92, 13107
  %94 = add nuw nsw i32 %93, %91
  %95 = and i32 %94, 1799
  %96 = lshr i32 %94, 4
  %97 = and i32 %96, 1799
  %98 = add nuw nsw i32 %97, %95
  %99 = and i32 %98, 15
  %100 = lshr i32 %98, 8
  %101 = add nuw nsw i32 %99, %.472
  %102 = add nuw nsw i32 %101, %100
  %indvars.iv.next = add nuw nsw i64 %indvars.iv, 1
  %exitcond.not = icmp eq i64 %indvars.iv.next, %wide.trip.count
  br i1 %exitcond.not, label %.loopexit, label %.lr.ph, !llvm.loop !52

103:                                              ; preds = %3
  %104 = add nsw i32 %2, -5
  %105 = shl nuw i32 1, %104
  %106 = icmp sgt i32 %7, 0
  br i1 %106, label %.preheader.lr.ph, label %.loopexit

.preheader.lr.ph:                                 ; preds = %103
  %.not = icmp eq i32 %104, 31
  %107 = shl i32 2, %104
  %108 = sext i32 %107 to i64
  br i1 %.not, label %.loopexit, label %.preheader.us.preheader

.preheader.us.preheader:                          ; preds = %.preheader.lr.ph
  %smax = tail call i32 @llvm.smax.i32(i32 %105, i32 1)
  %wide.trip.count132 = zext nneg i32 %smax to i64
  br label %.preheader.us

.preheader.us:                                    ; preds = %.preheader.us.preheader, %._crit_edge.us
  %.595.us = phi i32 [ %131, %._crit_edge.us ], [ 0, %.preheader.us.preheader ]
  %.05294.us = phi i32 [ %133, %._crit_edge.us ], [ 0, %.preheader.us.preheader ]
  %.05993.us = phi ptr [ %132, %._crit_edge.us ], [ %0, %.preheader.us.preheader ]
  br label %109

109:                                              ; preds = %.preheader.us, %109
  %indvars.iv129 = phi i64 [ 0, %.preheader.us ], [ %indvars.iv.next130, %109 ]
  %.690.us = phi i32 [ %.595.us, %.preheader.us ], [ %131, %109 ]
  %110 = getelementptr inbounds nuw i32, ptr %.05993.us, i64 %indvars.iv129
  %111 = load i32, ptr %110, align 4, !tbaa !3
  %112 = and i32 %111, 1431655765
  %113 = lshr i32 %111, 1
  %114 = and i32 %113, 1431655765
  %115 = add nuw i32 %114, %112
  %116 = and i32 %115, 858993459
  %117 = lshr i32 %115, 2
  %118 = and i32 %117, 858993459
  %119 = add nuw nsw i32 %118, %116
  %120 = and i32 %119, 117901063
  %121 = lshr i32 %119, 4
  %122 = and i32 %121, 117901063
  %123 = add nuw nsw i32 %122, %120
  %124 = and i32 %123, 983055
  %125 = lshr i32 %123, 8
  %126 = and i32 %125, 983055
  %127 = add nuw nsw i32 %126, %124
  %128 = and i32 %127, 31
  %129 = lshr i32 %127, 16
  %130 = add i32 %129, %.690.us
  %131 = add i32 %130, %128
  %indvars.iv.next130 = add nuw nsw i64 %indvars.iv129, 1
  %exitcond133.not = icmp eq i64 %indvars.iv.next130, %wide.trip.count132
  br i1 %exitcond133.not, label %._crit_edge.us, label %109, !llvm.loop !53

._crit_edge.us:                                   ; preds = %109
  %132 = getelementptr inbounds i32, ptr %.05993.us, i64 %108
  %133 = add nsw i32 %.05294.us, %107
  %134 = icmp slt i32 %133, %7
  br i1 %134, label %.preheader.us, label %.loopexit, !llvm.loop !54

.loopexit:                                        ; preds = %.lr.ph, %.lr.ph75, %.lr.ph79, %.lr.ph83, %.lr.ph87, %._crit_edge.us, %.preheader.lr.ph, %.preheader69, %.preheader67, %.preheader65, %.preheader63, %.preheader61, %103
  %.051 = phi i32 [ 0, %103 ], [ 0, %.preheader61 ], [ 0, %.preheader63 ], [ 0, %.preheader65 ], [ 0, %.preheader67 ], [ 0, %.preheader69 ], [ poison, %.preheader.lr.ph ], [ %131, %._crit_edge.us ], [ %30, %.lr.ph87 ], [ %48, %.lr.ph83 ], [ %66, %.lr.ph79 ], [ %84, %.lr.ph75 ], [ %102, %.lr.ph ]
  ret i32 %.051
}